target datalayout = "e-m:e-p270:32:32-p271:32:32-p272:64:64-i64:64-i128:128-f80:128-n8:16:32:64-S128"
target triple = "x86_64-pc-linux-gnu"

%"class.cv::Mat" = type { i32, i32, i32, i32, ptr, ptr, ptr, ptr, ptr, ptr, %"struct.cv::MatSize", %"struct.cv::MatStep" }
%"struct.cv::MatSize" = type { ptr }
%"struct.cv::MatStep" = type { ptr, [2 x i64] }
%"class.cv::Size_" = type { float, float }
%"class.std::__cxx11::basic_string" = type { %"struct.std::__cxx11::basic_string<char>::_Alloc_hider", i64, %union.anon }
%"struct.std::__cxx11::basic_string<char>::_Alloc_hider" = type { ptr }
%union.anon = type { i64, [8 x i8] }
%"class.std::allocator.15" = type { i8 }
%"class.cv::_InputArray" = type { i32, ptr, %"class.cv::Size_.14" }
%"class.cv::Size_.14" = type { i32, i32 }

@.str = private unnamed_addr constant [43 x i8] c"!pattern.empty() && (boardSize.area() > 0)\00", align 1
@__func__._ZN2cv6ccalib13CustomPattern6createERKNS_11_InputArrayENS_5Size_IfEERKNS_12_OutputArrayE = private unnamed_addr constant [7 x i8] c"create\00", align 1
@.str.1 = private unnamed_addr constant [137 x i8] c"generated/home/dtcxzyw/WorkSpace/Projects/compilers/llvm-opt-benchmark/bench/opencv/contrib/opencv_contrib/modules/ccalib/src/ccalib.cpp\00", align 1

; Function Attrs: mustprogress nounwind uwtable
define linkonce_odr hidden void @_ZNSt15__new_allocatorIcE10deallocateEPcm(ptr noundef nonnull align 1 dereferenceable(1) %0, ptr noundef %1, i64 noundef %2) #5 comdat align 2 {
  %4 = alloca ptr, align 8
  %5 = alloca ptr, align 8
  %6 = alloca i64, align 8
  store ptr %0, ptr %4, align 8, !tbaa !290
  store ptr %1, ptr %5, align 8, !tbaa !76
  store i64 %2, ptr %6, align 8, !tbaa !91
  %7 = load ptr, ptr %5, align 8, !tbaa !76
  call void @_ZdlPv(ptr noundef %7) #26
  ret void
}

; Function Attrs: mustprogress nounwind uwtable
define linkonce_odr hidden noundef ptr @_ZNSt19__ptr_traits_ptr_toIPKcS0_Lb0EE10pointer_toERS0_(ptr noundef nonnull align 1 dereferenceable(1) %0) #5 comdat align 2 {
  %2 = alloca ptr, align 8
  store ptr %0, ptr %2, align 8, !tbaa !76
  %3 = load ptr, ptr %2, align 8, !tbaa !76
  ret ptr %3
}

; Function Attrs: mustprogress uwtable
define linkonce_odr hidden void @_ZNSt16allocator_traitsISaIcEE10deallocateERS0_Pcm(ptr noundef nonnull align 1 dereferenceable(1) %0, ptr noundef %1, i64 noundef %2) #4 comdat align 2 {
  %4 = alloca ptr, align 8
  %5 = alloca ptr, align 8
  %6 = alloca i64, align 8
  store ptr %0, ptr %4, align 8, !tbaa !72
  store ptr %1, ptr %5, align 8, !tbaa !76
  store i64 %2, ptr %6, align 8, !tbaa !91
  %7 = load ptr, ptr %4, align 8, !tbaa !72
  %8 = load ptr, ptr %5, align 8, !tbaa !76
  %9 = load i64, ptr %6, align 8, !tbaa !91
  call void @_ZNSt15__new_allocatorIcE10deallocateEPcm(ptr noundef nonnull align 1 dereferenceable(1) %7, ptr noundef %8, i64 noundef %9)
  ret void
}

; Function Attrs: mustprogress nounwind uwtable
define available_externally noundef nonnull align 1 dereferenceable(1) ptr @_ZNSt7__cxx1112basic_stringIcSt11char_traitsIcESaIcEE16_M_get_allocatorEv(ptr noundef nonnull align 8 dereferenceable(32) %0) #5 align 2 {
  %2 = alloca ptr, align 8
  store ptr %0, ptr %2, align 8, !tbaa !74
  %3 = load ptr, ptr %2, align 8
  %4 = getelementptr inbounds nuw %"class.std::__cxx11::basic_string", ptr %3, i32 0, i32 0
  ret ptr %4
}

; Function Attrs: mustprogress nounwind uwtable
define available_externally noundef ptr @_ZNKSt7__cxx1112basic_stringIcSt11char_traitsIcESaIcEE13_M_local_dataEv(ptr noundef nonnull align 8 dereferenceable(32) %0) #5 align 2 {
  %2 = alloca ptr, align 8
  store ptr %0, ptr %2, align 8, !tbaa !74
  %3 = load ptr, ptr %2, align 8
  %4 = getelementptr inbounds nuw %"class.std::__cxx11::basic_string", ptr %3, i32 0, i32 2
  %5 = getelementptr inbounds [16 x i8], ptr %4, i64 0, i64 0
  %6 = call noundef ptr @_ZNSt19__ptr_traits_ptr_toIPKcS0_Lb0EE10pointer_toERS0_(ptr noundef nonnull align 1 dereferenceable(1) %5) #3
  ret ptr %6
}

; Function Attrs: mustprogress nounwind uwtable
define available_externally noundef ptr @_ZNKSt7__cxx1112basic_stringIcSt11char_traitsIcESaIcEE7_M_dataEv(ptr noundef nonnull align 8 dereferenceable(32) %0) #5 align 2 {
  %2 = alloca ptr, align 8
  store ptr %0, ptr %2, align 8, !tbaa !74
  %3 = load ptr, ptr %2, align 8
  %4 = getelementptr inbounds nuw %"class.std::__cxx11::basic_string", ptr %3, i32 0, i32 0
  %5 = getelementptr inbounds nuw %"struct.std::__cxx11::basic_string<char>::_Alloc_hider", ptr %4, i32 0, i32 0
  %6 = load ptr, ptr %5, align 8, !tbaa !295
  ret ptr %6
}

; Function Attrs: mustprogress nounwind uwtable
define available_externally void @_ZNSt7__cxx1112basic_stringIcSt11char_traitsIcESaIcEE10_M_destroyEm(ptr noundef nonnull align 8 dereferenceable(32) %0, i64 noundef %1) #5 align 2 personality ptr @__gxx_personality_v0 {
  %3 = alloca ptr, align 8
  %4 = alloca i64, align 8
  %5 = alloca ptr, align 8
  %6 = alloca i32, align 4
  store ptr %0, ptr %3, align 8, !tbaa !74
  store i64 %1, ptr %4, align 8, !tbaa !91
  %7 = load ptr, ptr %3, align 8
  %8 = invoke noundef nonnull align 1 dereferenceable(1) ptr @_ZNSt7__cxx1112basic_stringIcSt11char_traitsIcESaIcEE16_M_get_allocatorEv(ptr noundef nonnull align 8 dereferenceable(32) %7)
          to label %9 unwind label %14

9:                                                ; preds = %2
  %10 = call noundef ptr @_ZNKSt7__cxx1112basic_stringIcSt11char_traitsIcESaIcEE7_M_dataEv(ptr noundef nonnull align 8 dereferenceable(32) %7)
  %11 = load i64, ptr %4, align 8, !tbaa !91
  %12 = add i64 %11, 1
  invoke void @_ZNSt16allocator_traitsISaIcEE10deallocateERS0_Pcm(ptr noundef nonnull align 1 dereferenceable(1) %8, ptr noundef %10, i64 noundef %12)
          to label %13 unwind label %14

13:                                               ; preds = %9
  ret void

14:                                               ; preds = %9, %2
  %15 = landingpad { ptr, i32 }
          filter [0 x ptr] zeroinitializer
  %16 = extractvalue { ptr, i32 } %15, 0
  store ptr %16, ptr %5, align 8
  %17 = extractvalue { ptr, i32 } %15, 1
  store i32 %17, ptr %6, align 4
  br label %18

18:                                               ; preds = %14
  %19 = load ptr, ptr %5, align 8
  call void @__cxa_call_unexpected(ptr %19) #24
  unreachable
}

; Function Attrs: mustprogress uwtable
define available_externally noundef zeroext i1 @_ZNKSt7__cxx1112basic_stringIcSt11char_traitsIcESaIcEE11_M_is_localEv(ptr noundef nonnull align 8 dereferenceable(32) %0) #4 align 2 {
  %2 = alloca i1, align 1
  %3 = alloca ptr, align 8
  store ptr %0, ptr %3, align 8, !tbaa !74
  %4 = load ptr, ptr %3, align 8
  %5 = call noundef ptr @_ZNKSt7__cxx1112basic_stringIcSt11char_traitsIcESaIcEE7_M_dataEv(ptr noundef nonnull align 8 dereferenceable(32) %4)
  %6 = call noundef ptr @_ZNKSt7__cxx1112basic_stringIcSt11char_traitsIcESaIcEE13_M_local_dataEv(ptr noundef nonnull align 8 dereferenceable(32) %4)
  %7 = icmp eq ptr %5, %6
  br i1 %7, label %8, label %14

8:                                                ; preds = %1
  %9 = getelementptr inbounds nuw %"class.std::__cxx11::basic_string", ptr %4, i32 0, i32 1
  %10 = load i64, ptr %9, align 8, !tbaa !292
  %11 = icmp ugt i64 %10, 15
  br i1 %11, label %12, label %13

12:                                               ; preds = %8
  unreachable

13:                                               ; preds = %8
  store i1 true, ptr %2, align 1
  br label %15

14:                                               ; preds = %1
  store i1 false, ptr %2, align 1
  br label %15

15:                                               ; preds = %14, %13
  %16 = load i1, ptr %2, align 1
  ret i1 %16
}

; Function Attrs: noinline noreturn nounwind uwtable
define linkonce_odr hidden void @__clang_call_terminate(ptr noundef %0) #16 comdat {
  %2 = call ptr @__cxa_begin_catch(ptr %0) #3
  call void @_ZSt9terminatev() #25
  unreachable
}

; Function Attrs: mustprogress uwtable
define available_externally void @_ZNSt7__cxx1112basic_stringIcSt11char_traitsIcESaIcEE10_M_disposeEv(ptr noundef nonnull align 8 dereferenceable(32) %0) #4 align 2 {
  %2 = alloca ptr, align 8
  store ptr %0, ptr %2, align 8, !tbaa !74
  %3 = load ptr, ptr %2, align 8
  %4 = call noundef zeroext i1 @_ZNKSt7__cxx1112basic_stringIcSt11char_traitsIcESaIcEE11_M_is_localEv(ptr noundef nonnull align 8 dereferenceable(32) %3)
  br i1 %4, label %8, label %5

5:                                                ; preds = %1
  %6 = getelementptr inbounds nuw %"class.std::__cxx11::basic_string", ptr %3, i32 0, i32 2
  %7 = load i64, ptr %6, align 8, !tbaa !155
  call void @_ZNSt7__cxx1112basic_stringIcSt11char_traitsIcESaIcEE10_M_destroyEm(ptr noundef nonnull align 8 dereferenceable(32) %3, i64 noundef %7) #3
  br label %8

8:                                                ; preds = %5, %1
  ret void
}

; Function Attrs: mustprogress nounwind uwtable
define linkonce_odr hidden void @_ZNSt15__new_allocatorIcEC2Ev(ptr noundef nonnull align 1 dereferenceable(1) %0) unnamed_addr #5 comdat align 2 {
  %2 = alloca ptr, align 8
  store ptr %0, ptr %2, align 8, !tbaa !290
  ret void
}

; Function Attrs: inlinehint mustprogress uwtable
define linkonce_odr hidden void @_ZNK2cv11_InputArray6getMatEi(ptr dead_on_unwind noalias writable sret(%"class.cv::Mat") align 8 %0, ptr noundef nonnull align 8 dereferenceable(24) %1, i32 noundef %2) #10 comdat align 2 {
  %4 = alloca ptr, align 8
  %5 = alloca ptr, align 8
  %6 = alloca i32, align 4
  store ptr %0, ptr %4, align 8
  store ptr %1, ptr %5, align 8, !tbaa !59
  store i32 %2, ptr %6, align 4, !tbaa !77
  %7 = load ptr, ptr %5, align 8
  %8 = call noundef i32 @_ZNK2cv11_InputArray4kindEv(ptr noundef nonnull align 8 dereferenceable(24) %7)
  %9 = icmp eq i32 %8, 65536
  br i1 %9, label %10, label %16

10:                                               ; preds = %3
  %11 = load i32, ptr %6, align 4, !tbaa !77
  %12 = icmp slt i32 %11, 0
  br i1 %12, label %13, label %16

13:                                               ; preds = %10
  %14 = getelementptr inbounds nuw %"class.cv::_InputArray", ptr %7, i32 0, i32 1
  %15 = load ptr, ptr %14, align 8, !tbaa !78
  call void @_ZN2cv3MatC1ERKS0_(ptr noundef nonnull align 8 dereferenceable(96) %0, ptr noundef nonnull align 8 dereferenceable(96) %15)
  br label %18

16:                                               ; preds = %10, %3
  %17 = load i32, ptr %6, align 4, !tbaa !77
  call void @_ZNK2cv11_InputArray7getMat_Ei(ptr dead_on_unwind writable sret(%"class.cv::Mat") align 8 %0, ptr noundef nonnull align 8 dereferenceable(24) %7, i32 noundef %17)
  br label %18

18:                                               ; preds = %16, %13
  ret void
}

; Function Attrs: mustprogress nounwind uwtable
define linkonce_odr hidden void @_ZNSt15__new_allocatorIcED2Ev(ptr noundef nonnull align 1 dereferenceable(1) %0) unnamed_addr #5 comdat align 2 {
  %2 = alloca ptr, align 8
  store ptr %0, ptr %2, align 8, !tbaa !290
  ret void
}

; Function Attrs: mustprogress nounwind uwtable
define available_externally void @_ZNSt7__cxx1112basic_stringIcSt11char_traitsIcESaIcEED2Ev(ptr noundef nonnull align 8 dereferenceable(32) %0) unnamed_addr #5 align 2 personality ptr @__gxx_personality_v0 {
  %2 = alloca ptr, align 8
  store ptr %0, ptr %2, align 8, !tbaa !74
  %3 = load ptr, ptr %2, align 8
  invoke void @_ZNSt7__cxx1112basic_stringIcSt11char_traitsIcESaIcEE10_M_disposeEv(ptr noundef nonnull align 8 dereferenceable(32) %3)
          to label %4 unwind label %6

4:                                                ; preds = %1
  %5 = getelementptr inbounds nuw %"class.std::__cxx11::basic_string", ptr %3, i32 0, i32 0
  call void @_ZNSt15__new_allocatorIcED2Ev(ptr noundef nonnull align 8 dereferenceable(8) %5) #3
  ret void

6:                                                ; preds = %1
  %7 = landingpad { ptr, i32 }
          catch ptr null
  %8 = extractvalue { ptr, i32 } %7, 0
  call void @__clang_call_terminate(ptr %8) #25
  unreachable
}

; Function Attrs: mustprogress nounwind uwtable
define available_externally void @_ZNSaIcEC2Ev(ptr noundef nonnull align 1 dereferenceable(1) %0) unnamed_addr #5 align 2 {
  %2 = alloca ptr, align 8
  store ptr %0, ptr %2, align 8, !tbaa !72
  %3 = load ptr, ptr %2, align 8
  call void @_ZNSt15__new_allocatorIcEC2Ev(ptr noundef nonnull align 1 dereferenceable(1) %3) #3
  ret void
}

; Function Attrs: inlinehint mustprogress nounwind uwtable
define linkonce_odr hidden noundef float @_ZNK2cv5Size_IfE4areaEv(ptr noundef nonnull align 4 dereferenceable(8) %0) #6 comdat align 2 {
  %2 = alloca ptr, align 8
  %3 = alloca float, align 4
  store ptr %0, ptr %2, align 8, !tbaa !70
  %4 = load ptr, ptr %2, align 8
  call void @llvm.lifetime.start.p0(i64 4, ptr %3) #3
  %5 = getelementptr inbounds nuw %"class.cv::Size_", ptr %4, i32 0, i32 0
  %6 = load float, ptr %5, align 4, !tbaa !63
  %7 = getelementptr inbounds nuw %"class.cv::Size_", ptr %4, i32 0, i32 1
  %8 = load float, ptr %7, align 4, !tbaa !66
  %9 = fmul float %6, %8
  store float %9, ptr %3, align 4, !tbaa !69
  %10 = load float, ptr %3, align 4, !tbaa !69
  call void @llvm.lifetime.end.p0(i64 4, ptr %3) #3
  ret float %10
}

; Function Attrs: mustprogress uwtable
define noundef zeroext i1 @_ZN2cv6ccalib13CustomPattern6createERKNS_11_InputArrayENS_5Size_IfEERKNS_12_OutputArrayE(ptr noundef nonnull align 8 dereferenceable(336) %0, ptr noundef nonnull align 8 dereferenceable(24) %1, <2 x float> %2, ptr noundef nonnull align 8 dereferenceable(24) %3) #7 align 2 personality ptr @__gxx_personality_v0 {
  %5 = alloca %"class.cv::Size_", align 4
  %6 = alloca ptr, align 8
  %7 = alloca ptr, align 8
  %8 = alloca ptr, align 8
  %9 = alloca %"class.std::__cxx11::basic_string", align 8
  %10 = alloca %"class.std::allocator.15", align 1
  %11 = alloca ptr, align 8
  %12 = alloca i32, align 4
  %13 = alloca %"class.cv::Mat", align 8
  %14 = alloca float, align 4
  store <2 x float> %2, ptr %5, align 4
  store ptr %0, ptr %6, align 8, !tbaa !3
  store ptr %1, ptr %7, align 8, !tbaa !59
  store ptr %3, ptr %8, align 8, !tbaa !61
  %15 = load ptr, ptr %6, align 8
  br label %16

16:                                               ; preds = %4
  %17 = load ptr, ptr %7, align 8, !tbaa !59
  %18 = call noundef zeroext i1 @_ZNK2cv11_InputArray5emptyEv(ptr noundef nonnull align 8 dereferenceable(24) %17)
  br i1 %18, label %23, label %19

19:                                               ; preds = %16
  %20 = call noundef float @_ZNK2cv5Size_IfE4areaEv(ptr noundef nonnull align 4 dereferenceable(8) %5)
  %21 = fcmp ogt float %20, 0.000000e+00
  br i1 %21, label %22, label %23

22:                                               ; preds = %19
  br label %35

23:                                               ; preds = %19, %16
  call void @llvm.lifetime.start.p0(i64 32, ptr %9) #3
  call void @llvm.lifetime.start.p0(i64 1, ptr %10) #3
  call void @_ZNSaIcEC2Ev(ptr noundef nonnull align 1 dereferenceable(1) %10) #3
  invoke void @_ZNSt7__cxx1112basic_stringIcSt11char_traitsIcESaIcEEC2EPKcRKS3_(ptr noundef nonnull align 8 dereferenceable(32) %9, ptr noundef @.str, ptr noundef nonnull align 1 dereferenceable(1) %10)
          to label %24 unwind label %26

24:                                               ; preds = %23
  invoke void @_ZN2cv5errorEiRKNSt7__cxx1112basic_stringIcSt11char_traitsIcESaIcEEEPKcS9_i(i32 noundef -215, ptr noundef nonnull align 8 dereferenceable(32) %9, ptr noundef @__func__._ZN2cv6ccalib13CustomPattern6createERKNS_11_InputArrayENS_5Size_IfEERKNS_12_OutputArrayE, ptr noundef @.str.1, i32 noundef 77) #24
          to label %25 unwind label %30

25:                                               ; preds = %24
  unreachable

26:                                               ; preds = %23
  %27 = landingpad { ptr, i32 }
          cleanup
  %28 = extractvalue { ptr, i32 } %27, 0
  store ptr %28, ptr %11, align 8
  %29 = extractvalue { ptr, i32 } %27, 1
  store i32 %29, ptr %12, align 4
  br label %34

30:                                               ; preds = %24
  %31 = landingpad { ptr, i32 }
          cleanup
  %32 = extractvalue { ptr, i32 } %31, 0
  store ptr %32, ptr %11, align 8
  %33 = extractvalue { ptr, i32 } %31, 1
  store i32 %33, ptr %12, align 4
  call void @_ZNSt7__cxx1112basic_stringIcSt11char_traitsIcESaIcEED2Ev(ptr noundef nonnull align 8 dereferenceable(32) %9) #3
  br label %34

34:                                               ; preds = %30, %26
  call void @_ZNSt15__new_allocatorIcED2Ev(ptr noundef nonnull align 1 dereferenceable(1) %10) #3
  call void @llvm.lifetime.end.p0(i64 1, ptr %10) #3
  call void @llvm.lifetime.end.p0(i64 32, ptr %9) #3
  br label %67

35:                                               ; preds = %22
  br label %36

36:                                               ; preds = %35
  call void @llvm.lifetime.start.p0(i64 96, ptr %13) #3
  %37 = load ptr, ptr %7, align 8, !tbaa !59
  call void @_ZNK2cv11_InputArray6getMatEi(ptr dead_on_unwind writable sret(%"class.cv::Mat") align 8 %13, ptr noundef nonnull align 8 dereferenceable(24) %37, i32 noundef -1)
  call void @llvm.lifetime.start.p0(i64 4, ptr %14) #3
  %38 = getelementptr inbounds nuw %"class.cv::Size_", ptr %5, i32 0, i32 0
  %39 = load float, ptr %38, align 4, !tbaa !63
  %40 = getelementptr inbounds nuw %"class.cv::Size_", ptr %5, i32 0, i32 1
  %41 = load float, ptr %40, align 4, !tbaa !66
  %42 = fcmp ogt float %39, %41
  br i1 %42, label %43, label %50

43:                                               ; preds = %36
  %44 = getelementptr inbounds nuw %"class.cv::Mat", ptr %13, i32 0, i32 3
  %45 = load i32, ptr %44, align 4, !tbaa !67
  %46 = sitofp i32 %45 to float
  %47 = getelementptr inbounds nuw %"class.cv::Size_", ptr %5, i32 0, i32 0
  %48 = load float, ptr %47, align 4, !tbaa !63
  %49 = fdiv float %46, %48
  br label %57

50:                                               ; preds = %36
  %51 = getelementptr inbounds nuw %"class.cv::Mat", ptr %13, i32 0, i32 2
  %52 = load i32, ptr %51, align 8, !tbaa !68
  %53 = sitofp i32 %52 to float
  %54 = getelementptr inbounds nuw %"class.cv::Size_", ptr %5, i32 0, i32 1
  %55 = load float, ptr %54, align 4, !tbaa !66
  %56 = fdiv float %53, %55
  br label %57

57:                                               ; preds = %50, %43
  %58 = phi float [ %49, %43 ], [ %56, %50 ]
  store float %58, ptr %14, align 4, !tbaa !69
  %59 = load float, ptr %14, align 4, !tbaa !69
  %60 = load ptr, ptr %8, align 8, !tbaa !61
  %61 = invoke noundef zeroext i1 @_ZN2cv6ccalib13CustomPattern4initERNS_3MatEfRKNS_12_OutputArrayE(ptr noundef nonnull align 8 dereferenceable(336) %15, ptr noundef nonnull align 8 dereferenceable(96) %13, float noundef %59, ptr noundef nonnull align 8 dereferenceable(24) %60)
          to label %62 unwind label %63

62:                                               ; preds = %57
  call void @llvm.lifetime.end.p0(i64 4, ptr %14) #3
  call void @_ZN2cv3MatD1Ev(ptr noundef nonnull align 8 dereferenceable(96) %13) #3
  call void @llvm.lifetime.end.p0(i64 96, ptr %13) #3
  ret i1 %61

63:                                               ; preds = %57
  %64 = landingpad { ptr, i32 }
          cleanup
  %65 = extractvalue { ptr, i32 } %64, 0
  store ptr %65, ptr %11, align 8
  %66 = extractvalue { ptr, i32 } %64, 1
  store i32 %66, ptr %12, align 4
  call void @llvm.lifetime.end.p0(i64 4, ptr %14) #3
  call void @_ZN2cv3MatD1Ev(ptr noundef nonnull align 8 dereferenceable(96) %13) #3
  call void @llvm.lifetime.end.p0(i64 96, ptr %13) #3
  br label %67

67:                                               ; preds = %63, %34
  %68 = load ptr, ptr %11, align 8
  %69 = load i32, ptr %12, align 4
  %70 = insertvalue { ptr, i32 } poison, ptr %68, 0
  %71 = insertvalue { ptr, i32 } %70, i32 %69, 1
  resume { ptr, i32 } %71
}