; Function Attrs: mustprogress uwtable
define noundef zeroext i1 @_ZN2cv6ccalib13CustomPattern6createERKNS_11_InputArrayENS_5Size_IfEERKNS_12_OutputArrayE(ptr noundef nonnull align 8 dereferenceable(336) %0, ptr noundef nonnull align 8 dereferenceable(24) %1, <2 x float> %2, ptr noundef nonnull align 8 dereferenceable(24) %3) local_unnamed_addr #4 align 2 personality ptr @__gxx_personality_v0 {
  %5 = alloca %"class.std::__cxx11::basic_string", align 8
  %6 = alloca %"class.std::allocator.15", align 1
  %7 = alloca %"class.cv::Mat", align 8
  %8 = tail call noundef zeroext i1 @_ZNK2cv11_InputArray5emptyEv(ptr noundef nonnull align 8 dereferenceable(24) %1)
  br i1 %8, label %12, label %9

9:                                                ; preds = %4
  %.sroa.0.0.vec.extract13 = extractelement <2 x float> %2, i64 0
  %.sroa.0.4.vec.extract15 = extractelement <2 x float> %2, i64 1
  %10 = fmul float %.sroa.0.0.vec.extract13, %.sroa.0.4.vec.extract15
  %11 = fcmp ogt float %10, 0.000000e+00
  br i1 %11, label %25, label %12

12:                                               ; preds = %9, %4
  call void @llvm.lifetime.start.p0(i64 32, ptr nonnull %5) #24
  call void @llvm.lifetime.start.p0(i64 1, ptr nonnull %6) #24
  invoke void @_ZNSt7__cxx1112basic_stringIcSt11char_traitsIcESaIcEEC2EPKcRKS3_(ptr noundef nonnull align 8 dereferenceable(32) %5, ptr noundef nonnull @.str, ptr noundef nonnull align 1 dereferenceable(1) %6)
          to label %13 unwind label %15

13:                                               ; preds = %12
  invoke void @_ZN2cv5errorEiRKNSt7__cxx1112basic_stringIcSt11char_traitsIcESaIcEEEPKcS9_i(i32 noundef -215, ptr noundef nonnull align 8 dereferenceable(32) %5, ptr noundef nonnull @__func__._ZN2cv6ccalib13CustomPattern6createERKNS_11_InputArrayENS_5Size_IfEERKNS_12_OutputArrayE, ptr noundef nonnull @.str.1, i32 noundef 77) #25
          to label %14 unwind label %17

14:                                               ; preds = %13
  unreachable

15:                                               ; preds = %12
  %16 = landingpad { ptr, i32 }
          cleanup
  br label %_ZNSt7__cxx1112basic_stringIcSt11char_traitsIcESaIcEED2Ev.exit

17:                                               ; preds = %13
  %18 = landingpad { ptr, i32 }
          cleanup
  %19 = load ptr, ptr %5, align 8, !tbaa !47
  %20 = getelementptr inbounds nuw i8, ptr %5, i64 16
  %21 = icmp eq ptr %19, %20
  br i1 %21, label %_ZNKSt7__cxx1112basic_stringIcSt11char_traitsIcESaIcEE11_M_is_localEv.exit.thread.i.i, label %_ZNKSt7__cxx1112basic_stringIcSt11char_traitsIcESaIcEE11_M_is_localEv.exit.i.i

_ZNKSt7__cxx1112basic_stringIcSt11char_traitsIcESaIcEE11_M_is_localEv.exit.thread.i.i: ; preds = %17
  %22 = getelementptr inbounds nuw i8, ptr %5, i64 8
  %23 = load i64, ptr %22, align 8, !tbaa !51
  %24 = icmp ult i64 %23, 16
  call void @llvm.assume(i1 %24)
  br label %_ZNSt7__cxx1112basic_stringIcSt11char_traitsIcESaIcEED2Ev.exit

_ZNKSt7__cxx1112basic_stringIcSt11char_traitsIcESaIcEE11_M_is_localEv.exit.i.i: ; preds = %17
  call void @_ZdlPv(ptr noundef %19) #26
  br label %_ZNSt7__cxx1112basic_stringIcSt11char_traitsIcESaIcEED2Ev.exit

_ZNSt7__cxx1112basic_stringIcSt11char_traitsIcESaIcEED2Ev.exit: ; preds = %_ZNKSt7__cxx1112basic_stringIcSt11char_traitsIcESaIcEE11_M_is_localEv.exit.i.i, %_ZNKSt7__cxx1112basic_stringIcSt11char_traitsIcESaIcEE11_M_is_localEv.exit.thread.i.i, %15
  %.pn = phi { ptr, i32 } [ %16, %15 ], [ %18, %_ZNKSt7__cxx1112basic_stringIcSt11char_traitsIcESaIcEE11_M_is_localEv.exit.thread.i.i ], [ %18, %_ZNKSt7__cxx1112basic_stringIcSt11char_traitsIcESaIcEE11_M_is_localEv.exit.i.i ]
  call void @llvm.lifetime.end.p0(i64 1, ptr nonnull %6) #24
  call void @llvm.lifetime.end.p0(i64 32, ptr nonnull %5) #24
  br label %43

25:                                               ; preds = %9
  call void @llvm.lifetime.start.p0(i64 96, ptr nonnull %7) #24
  %26 = tail call noundef i32 @_ZNK2cv11_InputArray4kindEv(ptr noundef nonnull align 8 dereferenceable(24) %1), !noalias !52
  %27 = icmp eq i32 %26, 65536
  br i1 %27, label %28, label %31

28:                                               ; preds = %25
  %29 = getelementptr inbounds nuw i8, ptr %1, i64 8
  %30 = load ptr, ptr %29, align 8, !tbaa !55, !noalias !52
  call void @_ZN2cv3MatC1ERKS0_(ptr noundef nonnull align 8 dereferenceable(96) %7, ptr noundef nonnull align 8 dereferenceable(96) %30)
  br label %_ZNK2cv11_InputArray6getMatEi.exit

31:                                               ; preds = %25
  call void @_ZNK2cv11_InputArray7getMat_Ei(ptr dead_on_unwind nonnull writable sret(%"class.cv::Mat") align 8 %7, ptr noundef nonnull align 8 dereferenceable(24) %1, i32 noundef -1)
  br label %_ZNK2cv11_InputArray6getMatEi.exit

_ZNK2cv11_InputArray6getMatEi.exit:               ; preds = %28, %31
  %32 = fcmp ogt float %.sroa.0.0.vec.extract13, %.sroa.0.4.vec.extract15
  %33 = getelementptr inbounds nuw i8, ptr %7, i64 8
  %34 = load i32, ptr %33, align 8
  %35 = getelementptr inbounds nuw i8, ptr %7, i64 12
  %36 = load i32, ptr %35, align 4
  %.sink16 = select i1 %32, i32 %36, i32 %34
  %.sroa.0.4.vec.extract15.sink = select i1 %32, float %.sroa.0.0.vec.extract13, float %.sroa.0.4.vec.extract15
  %37 = sitofp i32 %.sink16 to float
  %38 = fdiv float %37, %.sroa.0.4.vec.extract15.sink
  %39 = invoke noundef zeroext i1 @_ZN2cv6ccalib13CustomPattern4initERNS_3MatEfRKNS_12_OutputArrayE(ptr noundef nonnull align 8 dereferenceable(336) %0, ptr noundef nonnull align 8 dereferenceable(96) %7, float noundef %38, ptr noundef nonnull align 8 dereferenceable(24) %3)
          to label %40 unwind label %41

40:                                               ; preds = %_ZNK2cv11_InputArray6getMatEi.exit
  call void @_ZN2cv3MatD1Ev(ptr noundef nonnull align 8 dereferenceable(96) %7) #24
  call void @llvm.lifetime.end.p0(i64 96, ptr nonnull %7) #24
  ret i1 %39

41:                                               ; preds = %_ZNK2cv11_InputArray6getMatEi.exit
  %42 = landingpad { ptr, i32 }
          cleanup
  call void @_ZN2cv3MatD1Ev(ptr noundef nonnull align 8 dereferenceable(96) %7) #24
  call void @llvm.lifetime.end.p0(i64 96, ptr nonnull %7) #24
  br label %43

43:                                               ; preds = %41, %_ZNSt7__cxx1112basic_stringIcSt11char_traitsIcESaIcEED2Ev.exit
  %.pn.pn = phi { ptr, i32 } [ %.pn, %_ZNSt7__cxx1112basic_stringIcSt11char_traitsIcESaIcEED2Ev.exit ], [ %42, %41 ]
  resume { ptr, i32 } %.pn.pn
}